; Function Attrs: nounwind uwtable
define hidden range(i32 0, 2) i32 @opj_jp2_end_compress(ptr noundef %0, ptr noundef %1, ptr noundef %2) local_unnamed_addr #0 {
  %4 = getelementptr i8, ptr %0, i64 16
  %.val = load ptr, ptr %4, align 8, !tbaa !110
  %5 = tail call i32 @opj_procedure_list_add_procedure(ptr noundef %.val, ptr noundef nonnull @opj_jp2_write_jp2c, ptr noundef %2) #6
  %.not.i.not = icmp eq i32 %5, 0
  br i1 %.not.i.not, label %22, label %6

6:                                                ; preds = %3
  %7 = load ptr, ptr %0, align 8, !tbaa !3
  %8 = tail call i32 @opj_j2k_end_compress(ptr noundef %7, ptr noundef %1, ptr noundef %2) #6
  %.not9 = icmp eq i32 %8, 0
  br i1 %.not9, label %22, label %9

9:                                                ; preds = %6
  %10 = load ptr, ptr %4, align 8, !tbaa !110
  %11 = tail call i32 @opj_procedure_list_get_nb_procedures(ptr noundef %10) #6
  %12 = tail call ptr @opj_procedure_list_get_first_procedure(ptr noundef %10) #6
  %.not17.i = icmp eq i32 %11, 0
  br i1 %.not17.i, label %opj_jp2_exec.exit, label %.lr.ph.i

.lr.ph.i:                                         ; preds = %9, %18
  %.016.i = phi i32 [ %21, %18 ], [ 0, %9 ]
  %.01215.i = phi ptr [ %20, %18 ], [ %12, %9 ]
  %.01314.i = phi i32 [ %19, %18 ], [ 1, %9 ]
  %.not.i10 = icmp eq i32 %.01314.i, 0
  br i1 %.not.i10, label %18, label %13

13:                                               ; preds = %.lr.ph.i
  %14 = load ptr, ptr %.01215.i, align 8, !tbaa !111
  %15 = tail call i32 %14(ptr noundef nonnull %0, ptr noundef %1, ptr noundef %2) #6
  %16 = icmp ne i32 %15, 0
  %17 = zext i1 %16 to i32
  br label %18

18:                                               ; preds = %13, %.lr.ph.i
  %19 = phi i32 [ 0, %.lr.ph.i ], [ %17, %13 ]
  %20 = getelementptr inbounds nuw i8, ptr %.01215.i, i64 8
  %21 = add nuw i32 %.016.i, 1
  %exitcond.not.i = icmp eq i32 %21, %11
  br i1 %exitcond.not.i, label %opj_jp2_exec.exit, label %.lr.ph.i, !llvm.loop !112

opj_jp2_exec.exit:                                ; preds = %18, %9
  %.013.lcssa.i = phi i32 [ 1, %9 ], [ %19, %18 ]
  tail call void @opj_procedure_list_clear(ptr noundef %10) #6
  br label %22

22:                                               ; preds = %6, %3, %opj_jp2_exec.exit
  %.0 = phi i32 [ %.013.lcssa.i, %opj_jp2_exec.exit ], [ 0, %3 ], [ 0, %6 ]
  ret i32 %.0
}